; ModuleID = 'source-C-CXX/36/1027.c'
source_filename = "source-C-CXX/36/1027.c"
target datalayout = "e-m:e-p270:32:32-p271:32:32-p272:64:64-i64:64-f80:128-n8:16:32:64-S128"
target triple = "x86_64-pc-linux-gnu"

@.str = private unnamed_addr constant [3 x i8] c"%d\00", align 1
@.str.1 = private unnamed_addr constant [3 x i8] c"%s\00", align 1
@.str.2 = private unnamed_addr constant [4 x i8] c"%c\0A\00", align 1
@str = private unnamed_addr constant [3 x i8] c"no\00", align 1

; Function Attrs: nofree nounwind sspstrong uwtable
define dso_local i32 @main(i32 %0, i8** nocapture readnone %1) local_unnamed_addr #0 {
  %3 = alloca [100 x i8], align 16
  %4 = alloca i32, align 4
  %5 = getelementptr inbounds [100 x i8], [100 x i8]* %3, i64 0, i64 0
  call void @llvm.lifetime.start.p0i8(i64 100, i8* nonnull %5) #4
  %6 = bitcast i32* %4 to i8*
  call void @llvm.lifetime.start.p0i8(i64 4, i8* nonnull %6) #4
  %7 = call i32 (i8*, ...) @__isoc99_scanf(i8* getelementptr inbounds ([3 x i8], [3 x i8]* @.str, i64 0, i64 0), i32* nonnull %4)
  %8 = load i32, i32* %4, align 4, !tbaa !5
  %9 = icmp sgt i32 %8, 0
  br i1 %9, label %10, label %43

10:                                               ; preds = %2, %39
  %11 = phi i32 [ %40, %39 ], [ 0, %2 ]
  %12 = call i32 (i8*, ...) @__isoc99_scanf(i8* getelementptr inbounds ([3 x i8], [3 x i8]* @.str.1, i64 0, i64 0), i8* nonnull %5)
  %13 = load i8, i8* %5, align 16
  %14 = icmp eq i8 %13, 0
  br i1 %14, label %37, label %18

15:                                               ; preds = %31
  %16 = load i8, i8* %33, align 1, !tbaa !9
  %17 = icmp eq i8 %16, 0
  br i1 %17, label %37, label %18, !llvm.loop !10

18:                                               ; preds = %10, %15
  %19 = phi i8 [ %16, %15 ], [ %13, %10 ]
  %20 = phi i8* [ %33, %15 ], [ %5, %10 ]
  br label %21

21:                                               ; preds = %18, %21
  %22 = phi i8 [ %13, %18 ], [ %29, %21 ]
  %23 = phi i32 [ 0, %18 ], [ %27, %21 ]
  %24 = phi i8* [ %5, %18 ], [ %28, %21 ]
  %25 = icmp eq i8 %22, %19
  %26 = zext i1 %25 to i32
  %27 = add nuw nsw i32 %23, %26
  %28 = getelementptr inbounds i8, i8* %24, i64 1
  %29 = load i8, i8* %28, align 1, !tbaa !9
  %30 = icmp eq i8 %29, 0
  br i1 %30, label %31, label %21, !llvm.loop !12

31:                                               ; preds = %21
  %32 = icmp ult i32 %27, 2
  %33 = getelementptr inbounds i8, i8* %20, i64 1
  br i1 %32, label %34, label %15

34:                                               ; preds = %31
  %35 = sext i8 %19 to i32
  %36 = call i32 (i8*, ...) @printf(i8* nonnull dereferenceable(1) getelementptr inbounds ([4 x i8], [4 x i8]* @.str.2, i64 0, i64 0), i32 %35)
  br label %39

37:                                               ; preds = %15, %10
  %38 = call i32 @puts(i8* nonnull dereferenceable(1) getelementptr inbounds ([3 x i8], [3 x i8]* @str, i64 0, i64 0))
  br label %39

39:                                               ; preds = %34, %37
  %40 = add nuw nsw i32 %11, 1
  %41 = load i32, i32* %4, align 4, !tbaa !5
  %42 = icmp slt i32 %40, %41
  br i1 %42, label %10, label %43, !llvm.loop !13

43:                                               ; preds = %39, %2
  call void @llvm.lifetime.end.p0i8(i64 4, i8* nonnull %6) #4
  call void @llvm.lifetime.end.p0i8(i64 100, i8* nonnull %5) #4
  ret i32 0
}

; Function Attrs: argmemonly mustprogress nofree nosync nounwind willreturn
declare void @llvm.lifetime.start.p0i8(i64 immarg, i8* nocapture) #1

; Function Attrs: nofree nounwind
declare noundef i32 @__isoc99_scanf(i8* nocapture noundef readonly, ...) local_unnamed_addr #2

; Function Attrs: nofree nounwind
declare noundef i32 @printf(i8* nocapture noundef readonly, ...) local_unnamed_addr #2

; Function Attrs: argmemonly mustprogress nofree nosync nounwind willreturn
declare void @llvm.lifetime.end.p0i8(i64 immarg, i8* nocapture) #1

; Function Attrs: nofree nounwind
declare noundef i32 @puts(i8* nocapture noundef readonly) local_unnamed_addr #3


!llvm.module.flags = !{!0, !1, !2, !3}
!llvm.ident = !{!4}

!0 = !{i32 1, !"wchar_size", i32 4}
!1 = !{i32 7, !"PIC Level", i32 2}
!2 = !{i32 7, !"PIE Level", i32 2}
!3 = !{i32 7, !"uwtable", i32 1}
!4 = !{!"clang version 13.0.0"}
!5 = !{!6, !6, i64 0}
!6 = !{!"int", !7, i64 0}
!7 = !{!"omnipotent char", !8, i64 0}
!8 = !{!"Simple C/C++ TBAA"}
!9 = !{!7, !7, i64 0}
!10 = distinct !{!10, !11}
!11 = !{!"llvm.loop.mustprogress"}
!12 = distinct !{!12, !11}
!13 = distinct !{!13, !11}
